; Function Attrs: nofree norecurse nosync nounwind memory(argmem: readwrite) uwtable
define internal void @PredictorAdd6_C(ptr noundef readonly captures(none) %0, ptr noundef readonly captures(none) %1, i32 noundef %2, ptr noalias noundef captures(none) %3) #2 {
  %invariant.gep = getelementptr i8, ptr %1, i64 -4
  %5 = icmp sgt i32 %2, 0
  br i1 %5, label %.lr.ph.preheader, label %._crit_edge

.lr.ph.preheader:                                 ; preds = %4
  %wide.trip.count = zext nneg i32 %2 to i64
  %scevgep = getelementptr i8, ptr %3, i64 -4
  %load_initial = load i32, ptr %scevgep, align 4
  br label %.lr.ph

.lr.ph:                                           ; preds = %.lr.ph.preheader, %.lr.ph
  %store_forwarded = phi i32 [ %load_initial, %.lr.ph.preheader ], [ %23, %.lr.ph ]
  %indvars.iv = phi i64 [ 0, %.lr.ph.preheader ], [ %indvars.iv.next, %.lr.ph ]
  %6 = getelementptr i32, ptr %3, i64 %indvars.iv
  %gep = getelementptr i32, ptr %invariant.gep, i64 %indvars.iv
  %7 = load i32, ptr %gep, align 4, !tbaa !3
  %8 = xor i32 %7, %store_forwarded
  %9 = lshr i32 %8, 1
  %10 = and i32 %9, 2139062143
  %11 = and i32 %7, %store_forwarded
  %12 = add i32 %10, %11
  %13 = getelementptr inbounds nuw i32, ptr %0, i64 %indvars.iv
  %14 = load i32, ptr %13, align 4, !tbaa !3
  %15 = and i32 %14, -16711936
  %16 = and i32 %12, -16711936
  %17 = add i32 %16, %15
  %18 = and i32 %14, 16711935
  %19 = and i32 %12, 16711935
  %20 = add nuw nsw i32 %19, %18
  %21 = and i32 %17, -16711936
  %22 = and i32 %20, 16711935
  %23 = or disjoint i32 %21, %22
  store i32 %23, ptr %6, align 4, !tbaa !3
  %indvars.iv.next = add nuw nsw i64 %indvars.iv, 1
  %exitcond.not = icmp eq i64 %indvars.iv.next, %wide.trip.count
  br i1 %exitcond.not, label %._crit_edge, label %.lr.ph, !llvm.loop !71

._crit_edge:                                      ; preds = %.lr.ph, %4
  ret void
}